; Function Attrs: nounwind uwtable
define dso_local void @zend_stream_init_filename(ptr noundef writeonly captures(none) initializes((0, 80)) %0, ptr noundef readonly captures(address_is_null) %1) local_unnamed_addr #0 {
  %.not = icmp eq ptr %1, null
  tail call void @llvm.memset.p0.i64(ptr noundef nonnull align 8 dereferenceable(80) %0, i8 0, i64 80, i1 false)
  br i1 %.not, label %12, label %zend_string_alloc.exit

zend_string_alloc.exit:                           ; preds = %2
  %3 = tail call i64 @strlen(ptr noundef nonnull dereferenceable(1) %1) #14
  %4 = and i64 %3, -8
  %5 = add i64 %4, 32
  %6 = tail call noalias ptr @_emalloc(i64 noundef %5) #15
  store i32 1, ptr %6, align 4, !tbaa !14
  %7 = getelementptr inbounds nuw i8, ptr %6, i64 4
  store i32 22, ptr %7, align 4, !tbaa !13
  %8 = getelementptr inbounds nuw i8, ptr %6, i64 8
  store i64 0, ptr %8, align 8, !tbaa !17
  %9 = getelementptr inbounds nuw i8, ptr %6, i64 16
  store i64 %3, ptr %9, align 8, !tbaa !19
  %10 = getelementptr inbounds nuw i8, ptr %6, i64 24
  tail call void @llvm.memcpy.p0.p0.i64(ptr nonnull align 8 %10, ptr nonnull align 1 %1, i64 %3, i1 false)
  %11 = getelementptr inbounds nuw [1 x i8], ptr %10, i64 0, i64 %3
  store i8 0, ptr %11, align 1, !tbaa !13
  br label %12

12:                                               ; preds = %2, %zend_string_alloc.exit
  %13 = phi ptr [ %6, %zend_string_alloc.exit ], [ null, %2 ]
  %14 = getelementptr inbounds nuw i8, ptr %0, i64 40
  store ptr %13, ptr %14, align 8, !tbaa !20
  ret void
}